; Function Attrs: nounwind uwtable
define internal fastcc range(i32 -1, 1) i32 @gz_init(ptr noundef nonnull initializes((48, 56)) %0) unnamed_addr #0 {
  %2 = getelementptr inbounds nuw i8, ptr %0, i64 128
  %3 = getelementptr inbounds nuw i8, ptr %0, i64 44
  %4 = load i32, ptr %3, align 4, !tbaa !28
  %5 = shl i32 %4, 1
  %6 = zext i32 %5 to i64
  %7 = tail call noalias ptr @malloc(i64 noundef %6) #16
  %8 = getelementptr inbounds nuw i8, ptr %0, i64 48
  store ptr %7, ptr %8, align 8, !tbaa !21
  %9 = icmp eq ptr %7, null
  br i1 %9, label %10, label %11

10:                                               ; preds = %1
  tail call void @gz_error(ptr noundef nonnull %0, i32 noundef -4, ptr noundef nonnull @.str.3) #14
  br label %39

11:                                               ; preds = %1
  %12 = getelementptr inbounds nuw i8, ptr %0, i64 64
  %13 = load i32, ptr %12, align 8, !tbaa !29
  %.not = icmp eq i32 %13, 0
  br i1 %.not, label %15, label %.thread

.thread:                                          ; preds = %11
  %14 = getelementptr inbounds nuw i8, ptr %0, i64 40
  store i32 %4, ptr %14, align 8, !tbaa !15
  br label %39

15:                                               ; preds = %11
  %16 = zext i32 %4 to i64
  %17 = tail call noalias ptr @malloc(i64 noundef %16) #16
  %18 = getelementptr inbounds nuw i8, ptr %0, i64 56
  store ptr %17, ptr %18, align 8, !tbaa !30
  %19 = icmp eq ptr %17, null
  br i1 %19, label %20, label %21

20:                                               ; preds = %15
  tail call void @free(ptr noundef nonnull %7) #14
  tail call void @gz_error(ptr noundef nonnull %0, i32 noundef -4, ptr noundef nonnull @.str.3) #14
  br label %39

21:                                               ; preds = %15
  %22 = getelementptr inbounds nuw i8, ptr %0, i64 192
  %23 = getelementptr inbounds nuw i8, ptr %0, i64 88
  tail call void @llvm.memset.p0.i64(ptr noundef nonnull align 8 dereferenceable(24) %22, i8 0, i64 24, i1 false)
  %24 = load i32, ptr %23, align 8, !tbaa !31
  %25 = getelementptr inbounds nuw i8, ptr %0, i64 92
  %26 = load i32, ptr %25, align 4, !tbaa !32
  %27 = tail call i32 @deflateInit2_(ptr noundef nonnull %2, i32 noundef %24, i32 noundef 8, i32 noundef 31, i32 noundef 8, i32 noundef %26, ptr noundef nonnull @.str.4, i32 noundef 112) #14
  %.not31 = icmp eq i32 %27, 0
  br i1 %.not31, label %31, label %28

28:                                               ; preds = %21
  %29 = load ptr, ptr %18, align 8, !tbaa !30
  tail call void @free(ptr noundef %29) #14
  %30 = load ptr, ptr %8, align 8, !tbaa !21
  tail call void @free(ptr noundef %30) #14
  tail call void @gz_error(ptr noundef nonnull %0, i32 noundef -4, ptr noundef nonnull @.str.3) #14
  br label %39

31:                                               ; preds = %21
  store ptr null, ptr %2, align 8, !tbaa !22
  %.pr = load i32, ptr %12, align 8, !tbaa !29
  %32 = load i32, ptr %3, align 4, !tbaa !28
  %33 = getelementptr inbounds nuw i8, ptr %0, i64 40
  store i32 %32, ptr %33, align 8, !tbaa !15
  %.not32 = icmp eq i32 %.pr, 0
  br i1 %.not32, label %34, label %39

34:                                               ; preds = %31
  %35 = getelementptr inbounds nuw i8, ptr %0, i64 160
  store i32 %32, ptr %35, align 8, !tbaa !33
  %36 = load ptr, ptr %18, align 8, !tbaa !30
  %37 = getelementptr inbounds nuw i8, ptr %0, i64 152
  store ptr %36, ptr %37, align 8, !tbaa !34
  %38 = getelementptr inbounds nuw i8, ptr %0, i64 8
  store ptr %36, ptr %38, align 8, !tbaa !35
  br label %39

39:                                               ; preds = %.thread, %31, %34, %28, %20, %10
  %.0 = phi i32 [ -1, %10 ], [ -1, %20 ], [ -1, %28 ], [ 0, %34 ], [ 0, %31 ], [ 0, %.thread ]
  ret i32 %.0
}